(dp0
I0
(lp1
I1
aI18
aI131
aI180
aI197
aI214
aI231
aI264
aI281
aI298
aI363
aI460
aI477
aI494
aI511
aI656
asI1
(lp2
I2
aI3
aI4
aI5
aI6
aI7
aI8
aI9
aI10
aI11
aI12
aI13
aI14
aI15
aI16
aI17
asI2
(lp3
sI3
(lp4
sI4
(lp5
sI5
(lp6
sI6
(lp7
sI7
(lp8
sI8
(lp9
sI9
(lp10
sI10
(lp11
sI11
(lp12
sI12
(lp13
sI13
(lp14
sI14
(lp15
sI15
(lp16
sI16
(lp17
sI17
(lp18
sI18
(lp19
I19
aI36
aI53
aI54
aI55
aI72
aI73
aI90
aI91
aI92
aI93
aI94
aI111
aI112
aI113
aI130
asI19
(lp20
I20
aI21
aI22
aI23
aI24
aI25
aI26
aI27
aI28
aI29
aI30
aI31
aI32
aI33
aI34
aI35
asI20
(lp21
sI21
(lp22
sI22
(lp23
sI23
(lp24
sI24
(lp25
sI25
(lp26
sI26
(lp27
sI27
(lp28
sI28
(lp29
sI29
(lp30
sI30
(lp31
sI31
(lp32
sI32
(lp33
sI33
(lp34
sI34
(lp35
sI35
(lp36
sI36
(lp37
I37
aI38
aI39
aI40
aI41
aI42
aI43
aI44
aI45
aI46
aI47
aI48
aI49
aI50
aI51
aI52
asI37
(lp38
sI38
(lp39
sI39
(lp40
sI40
(lp41
sI41
(lp42
sI42
(lp43
sI43
(lp44
sI44
(lp45
sI45
(lp46
sI46
(lp47
sI47
(lp48
sI48
(lp49
sI49
(lp50
sI50
(lp51
sI51
(lp52
sI52
(lp53
sI53
(lp54
sI54
(lp55
sI55
(lp56
I56
aI57
aI58
aI59
aI60
aI61
aI62
aI63
aI64
aI65
aI66
aI67
aI68
aI69
aI70
aI71
asI56
(lp57
sI57
(lp58
sI58
(lp59
sI59
(lp60
sI60
(lp61
sI61
(lp62
sI62
(lp63
sI63
(lp64
sI64
(lp65
sI65
(lp66
sI66
(lp67
sI67
(lp68
sI68
(lp69
sI69
(lp70
sI70
(lp71
sI71
(lp72
sI72
(lp73
sI73
(lp74
I74
aI75
aI76
aI77
aI78
aI79
aI80
aI81
aI82
aI83
aI84
aI85
aI86
aI87
aI88
aI89
asI74
(lp75
sI75
(lp76
sI76
(lp77
sI77
(lp78
sI78
(lp79
sI79
(lp80
sI80
(lp81
sI81
(lp82
sI82
(lp83
sI83
(lp84
sI84
(lp85
sI85
(lp86
sI86
(lp87
sI87
(lp88
sI88
(lp89
sI89
(lp90
sI90
(lp91
sI91
(lp92
sI92
(lp93
sI93
(lp94
sI94
(lp95
I95
aI96
aI97
aI98
aI99
aI100
aI101
aI102
aI103
aI104
aI105
aI106
aI107
aI108
aI109
aI110
asI95
(lp96
sI96
(lp97
sI97
(lp98
sI98
(lp99
sI99
(lp100
sI100
(lp101
sI101
(lp102
sI102
(lp103
sI103
(lp104
sI104
(lp105
sI105
(lp106
sI106
(lp107
sI107
(lp108
sI108
(lp109
sI109
(lp110
sI110
(lp111
sI111
(lp112
sI112
(lp113
sI113
(lp114
I114
aI115
aI116
aI117
aI118
aI119
aI120
aI121
aI122
aI123
aI124
aI125
aI126
aI127
aI128
aI129
asI114
(lp115
sI115
(lp116
sI116
(lp117
sI117
(lp118
sI118
(lp119
sI119
(lp120
sI120
(lp121
sI121
(lp122
sI122
(lp123
sI123
(lp124
sI124
(lp125
sI125
(lp126
sI126
(lp127
sI127
(lp128
sI128
(lp129
sI129
(lp130
sI130
(lp131
sI131
(lp132
I132
aI133
aI134
aI135
aI136
aI137
aI138
aI139
aI140
aI141
aI142
aI143
aI144
aI145
aI146
aI163
asI132
(lp133
sI133
(lp134
sI134
(lp135
sI135
(lp136
sI136
(lp137
sI137
(lp138
sI138
(lp139
sI139
(lp140
sI140
(lp141
sI141
(lp142
sI142
(lp143
sI143
(lp144
sI144
(lp145
sI145
(lp146
sI146
(lp147
I147
aI148
aI149
aI150
aI151
aI152
aI153
aI154
aI155
aI156
aI157
aI158
aI159
aI160
aI161
aI162
asI147
(lp148
sI148
(lp149
sI149
(lp150
sI150
(lp151
sI151
(lp152
sI152
(lp153
sI153
(lp154
sI154
(lp155
sI155
(lp156
sI156
(lp157
sI157
(lp158
sI158
(lp159
sI159
(lp160
sI160
(lp161
sI161
(lp162
sI162
(lp163
sI163
(lp164
I164
aI165
aI166
aI167
aI168
aI169
aI170
aI171
aI172
aI173
aI174
aI175
aI176
aI177
aI178
aI179
asI164
(lp165
sI165
(lp166
sI166
(lp167
sI167
(lp168
sI168
(lp169
sI169
(lp170
sI170
(lp171
sI171
(lp172
sI172
(lp173
sI173
(lp174
sI174
(lp175
sI175
(lp176
sI176
(lp177
sI177
(lp178
sI178
(lp179
sI179
(lp180
sI180
(lp181
I181
aI182
aI183
aI184
aI185
aI186
aI187
aI188
aI189
aI190
aI191
aI192
aI193
aI194
aI195
aI196
asI181
(lp182
sI182
(lp183
sI183
(lp184
sI184
(lp185
sI185
(lp186
sI186
(lp187
sI187
(lp188
sI188
(lp189
sI189
(lp190
sI190
(lp191
sI191
(lp192
sI192
(lp193
sI193
(lp194
sI194
(lp195
sI195
(lp196
sI196
(lp197
sI197
(lp198
I198
aI199
aI200
aI201
aI202
aI203
aI204
aI205
aI206
aI207
aI208
aI209
aI210
aI211
aI212
aI213
asI198
(lp199
sI199
(lp200
sI200
(lp201
sI201
(lp202
sI202
(lp203
sI203
(lp204
sI204
(lp205
sI205
(lp206
sI206
(lp207
sI207
(lp208
sI208
(lp209
sI209
(lp210
sI210
(lp211
sI211
(lp212
sI212
(lp213
sI213
(lp214
sI214
(lp215
I215
aI216
aI217
aI218
aI219
aI220
aI221
aI222
aI223
aI224
aI225
aI226
aI227
aI228
aI229
aI230
asI215
(lp216
sI216
(lp217
sI217
(lp218
sI218
(lp219
sI219
(lp220
sI220
(lp221
sI221
(lp222
sI222
(lp223
sI223
(lp224
sI224
(lp225
sI225
(lp226
sI226
(lp227
sI227
(lp228
sI228
(lp229
sI229
(lp230
sI230
(lp231
sI231
(lp232
I232
aI233
aI234
aI235
aI236
aI237
aI238
aI239
aI240
aI241
aI242
aI243
aI244
aI245
aI262
aI263
asI232
(lp233
sI233
(lp234
sI234
(lp235
sI235
(lp236
sI236
(lp237
sI237
(lp238
sI238
(lp239
sI239
(lp240
sI240
(lp241
sI241
(lp242
sI242
(lp243
sI243
(lp244
sI244
(lp245
sI245
(lp246
I246
aI247
aI248
aI249
aI250
aI251
aI252
aI253
aI254
aI255
aI256
aI257
aI258
aI259
aI260
aI261
asI246
(lp247
sI247
(lp248
sI248
(lp249
sI249
(lp250
sI250
(lp251
sI251
(lp252
sI252
(lp253
sI253
(lp254
sI254
(lp255
sI255
(lp256
sI256
(lp257
sI257
(lp258
sI258
(lp259
sI259
(lp260
sI260
(lp261
sI261
(lp262
sI262
(lp263
sI263
(lp264
sI264
(lp265
I265
aI266
aI267
aI268
aI269
aI270
aI271
aI272
aI273
aI274
aI275
aI276
aI277
aI278
aI279
aI280
asI265
(lp266
sI266
(lp267
sI267
(lp268
sI268
(lp269
sI269
(lp270
sI270
(lp271
sI271
(lp272
sI272
(lp273
sI273
(lp274
sI274
(lp275
sI275
(lp276
sI276
(lp277
sI277
(lp278
sI278
(lp279
sI279
(lp280
sI280
(lp281
sI281
(lp282
I282
aI283
aI284
aI285
aI286
aI287
aI288
aI289
aI290
aI291
aI292
aI293
aI294
aI295
aI296
aI297
asI282
(lp283
sI283
(lp284
sI284
(lp285
sI285
(lp286
sI286
(lp287
sI287
(lp288
sI288
(lp289
sI289
(lp290
sI290
(lp291
sI291
(lp292
sI292
(lp293
sI293
(lp294
sI294
(lp295
sI295
(lp296
sI296
(lp297
sI297
(lp298
sI298
(lp299
I299
aI300
aI317
aI318
aI319
aI320
aI321
aI322
aI323
aI340
aI357
aI358
aI359
aI360
aI361
aI362
asI299
(lp300
sI300
(lp301
I301
aI302
aI303
aI304
aI305
aI306
aI307
aI308
aI309
aI310
aI311
aI312
aI313
aI314
aI315
aI316
asI301
(lp302
sI302
(lp303
sI303
(lp304
sI304
(lp305
sI305
(lp306
sI306
(lp307
sI307
(lp308
sI308
(lp309
sI309
(lp310
sI310
(lp311
sI311
(lp312
sI312
(lp313
sI313
(lp314
sI314
(lp315
sI315
(lp316
sI316
(lp317
sI317
(lp318
sI318
(lp319
sI319
(lp320
sI320
(lp321
sI321
(lp322
sI322
(lp323
sI323
(lp324
I324
aI325
aI326
aI327
aI328
aI329
aI330
aI331
aI332
aI333
aI334
aI335
aI336
aI337
aI338
aI339
asI324
(lp325
sI325
(lp326
sI326
(lp327
sI327
(lp328
sI328
(lp329
sI329
(lp330
sI330
(lp331
sI331
(lp332
sI332
(lp333
sI333
(lp334
sI334
(lp335
sI335
(lp336
sI336
(lp337
sI337
(lp338
sI338
(lp339
sI339
(lp340
sI340
(lp341
I341
aI342
aI343
aI344
aI345
aI346
aI347
aI348
aI349
aI350
aI351
aI352
aI353
aI354
aI355
aI356
asI341
(lp342
sI342
(lp343
sI343
(lp344
sI344
(lp345
sI345
(lp346
sI346
(lp347
sI347
(lp348
sI348
(lp349
sI349
(lp350
sI350
(lp351
sI351
(lp352
sI352
(lp353
sI353
(lp354
sI354
(lp355
sI355
(lp356
sI356
(lp357
sI357
(lp358
sI358
(lp359
sI359
(lp360
sI360
(lp361
sI361
(lp362
sI362
(lp363
sI363
(lp364
I364
aI365
aI366
aI367
aI368
aI369
aI386
aI387
aI388
aI389
aI406
aI407
aI408
aI425
aI442
aI459
asI364
(lp365
sI365
(lp366
sI366
(lp367
sI367
(lp368
sI368
(lp369
sI369
(lp370
I370
aI371
aI372
aI373
aI374
aI375
aI376
aI377
aI378
aI379
aI380
aI381
aI382
aI383
aI384
aI385
asI370
(lp371
sI371
(lp372
sI372
(lp373
sI373
(lp374
sI374
(lp375
sI375
(lp376
sI376
(lp377
sI377
(lp378
sI378
(lp379
sI379
(lp380
sI380
(lp381
sI381
(lp382
sI382
(lp383
sI383
(lp384
sI384
(lp385
sI385
(lp386
sI386
(lp387
sI387
(lp388
sI388
(lp389
sI389
(lp390
I390
aI391
aI392
aI393
aI394
aI395
aI396
aI397
aI398
aI399
aI400
aI401
aI402
aI403
aI404
aI405
asI390
(lp391
sI391
(lp392
sI392
(lp393
sI393
(lp394
sI394
(lp395
sI395
(lp396
sI396
(lp397
sI397
(lp398
sI398
(lp399
sI399
(lp400
sI400
(lp401
sI401
(lp402
sI402
(lp403
sI403
(lp404
sI404
(lp405
sI405
(lp406
sI406
(lp407
sI407
(lp408
sI408
(lp409
I409
aI410
aI411
aI412
aI413
aI414
aI415
aI416
aI417
aI418
aI419
aI420
aI421
aI422
aI423
aI424
asI409
(lp410
sI410
(lp411
sI411
(lp412
sI412
(lp413
sI413
(lp414
sI414
(lp415
sI415
(lp416
sI416
(lp417
sI417
(lp418
sI418
(lp419
sI419
(lp420
sI420
(lp421
sI421
(lp422
sI422
(lp423
sI423
(lp424
sI424
(lp425
sI425
(lp426
I426
aI427
aI428
aI429
aI430
aI431
aI432
aI433
aI434
aI435
aI436
aI437
aI438
aI439
aI440
aI441
asI426
(lp427
sI427
(lp428
sI428
(lp429
sI429
(lp430
sI430
(lp431
sI431
(lp432
sI432
(lp433
sI433
(lp434
sI434
(lp435
sI435
(lp436
sI436
(lp437
sI437
(lp438
sI438
(lp439
sI439
(lp440
sI440
(lp441
sI441
(lp442
sI442
(lp443
I443
aI444
aI445
aI446
aI447
aI448
aI449
aI450
aI451
aI452
aI453
aI454
aI455
aI456
aI457
aI458
asI443
(lp444
sI444
(lp445
sI445
(lp446
sI446
(lp447
sI447
(lp448
sI448
(lp449
sI449
(lp450
sI450
(lp451
sI451
(lp452
sI452
(lp453
sI453
(lp454
sI454
(lp455
sI455
(lp456
sI456
(lp457
sI457
(lp458
sI458
(lp459
sI459
(lp460
sI460
(lp461
I461
aI462
aI463
aI464
aI465
aI466
aI467
aI468
aI469
aI470
aI471
aI472
aI473
aI474
aI475
aI476
asI461
(lp462
sI462
(lp463
sI463
(lp464
sI464
(lp465
sI465
(lp466
sI466
(lp467
sI467
(lp468
sI468
(lp469
sI469
(lp470
sI470
(lp471
sI471
(lp472
sI472
(lp473
sI473
(lp474
sI474
(lp475
sI475
(lp476
sI476
(lp477
sI477
(lp478
I478
aI479
aI480
aI481
aI482
aI483
aI484
aI485
aI486
aI487
aI488
aI489
aI490
aI491
aI492
aI493
asI478
(lp479
sI479
(lp480
sI480
(lp481
sI481
(lp482
sI482
(lp483
sI483
(lp484
sI484
(lp485
sI485
(lp486
sI486
(lp487
sI487
(lp488
sI488
(lp489
sI489
(lp490
sI490
(lp491
sI491
(lp492
sI492
(lp493
sI493
(lp494
sI494
(lp495
I495
aI496
aI497
aI498
aI499
aI500
aI501
aI502
aI503
aI504
aI505
aI506
aI507
aI508
aI509
aI510
asI495
(lp496
sI496
(lp497
sI497
(lp498
sI498
(lp499
sI499
(lp500
sI500
(lp501
sI501
(lp502
sI502
(lp503
sI503
(lp504
sI504
(lp505
sI505
(lp506
sI506
(lp507
sI507
(lp508
sI508
(lp509
sI509
(lp510
sI510
(lp511
sI511
(lp512
I512
aI513
aI514
aI515
aI532
aI549
aI566
aI583
aI584
aI585
aI602
aI603
aI620
aI621
aI638
aI639
asI512
(lp513
sI513
(lp514
sI514
(lp515
sI515
(lp516
I516
aI517
aI518
aI519
aI520
aI521
aI522
aI523
aI524
aI525
aI526
aI527
aI528
aI529
aI530
aI531
asI516
(lp517
sI517
(lp518
sI518
(lp519
sI519
(lp520
sI520
(lp521
sI521
(lp522
sI522
(lp523
sI523
(lp524
sI524
(lp525
sI525
(lp526
sI526
(lp527
sI527
(lp528
sI528
(lp529
sI529
(lp530
sI530
(lp531
sI531
(lp532
sI532
(lp533
I533
aI534
aI535
aI536
aI537
aI538
aI539
aI540
aI541
aI542
aI543
aI544
aI545
aI546
aI547
aI548
asI533
(lp534
sI534
(lp535
sI535
(lp536
sI536
(lp537
sI537
(lp538
sI538
(lp539
sI539
(lp540
sI540
(lp541
sI541
(lp542
sI542
(lp543
sI543
(lp544
sI544
(lp545
sI545
(lp546
sI546
(lp547
sI547
(lp548
sI548
(lp549
sI549
(lp550
I550
aI551
aI552
aI553
aI554
aI555
aI556
aI557
aI558
aI559
aI560
aI561
aI562
aI563
aI564
aI565
asI550
(lp551
sI551
(lp552
sI552
(lp553
sI553
(lp554
sI554
(lp555
sI555
(lp556
sI556
(lp557
sI557
(lp558
sI558
(lp559
sI559
(lp560
sI560
(lp561
sI561
(lp562
sI562
(lp563
sI563
(lp564
sI564
(lp565
sI565
(lp566
sI566
(lp567
I567
aI568
aI569
aI570
aI571
aI572
aI573
aI574
aI575
aI576
aI577
aI578
aI579
aI580
aI581
aI582
asI567
(lp568
sI568
(lp569
sI569
(lp570
sI570
(lp571
sI571
(lp572
sI572
(lp573
sI573
(lp574
sI574
(lp575
sI575
(lp576
sI576
(lp577
sI577
(lp578
sI578
(lp579
sI579
(lp580
sI580
(lp581
sI581
(lp582
sI582
(lp583
sI583
(lp584
sI584
(lp585
sI585
(lp586
I586
aI587
aI588
aI589
aI590
aI591
aI592
aI593
aI594
aI595
aI596
aI597
aI598
aI599
aI600
aI601
asI586
(lp587
sI587
(lp588
sI588
(lp589
sI589
(lp590
sI590
(lp591
sI591
(lp592
sI592
(lp593
sI593
(lp594
sI594
(lp595
sI595
(lp596
sI596
(lp597
sI597
(lp598
sI598
(lp599
sI599
(lp600
sI600
(lp601
sI601
(lp602
sI602
(lp603
sI603
(lp604
I604
aI605
aI606
aI607
aI608
aI609
aI610
aI611
aI612
aI613
aI614
aI615
aI616
aI617
aI618
aI619
asI604
(lp605
sI605
(lp606
sI606
(lp607
sI607
(lp608
sI608
(lp609
sI609
(lp610
sI610
(lp611
sI611
(lp612
sI612
(lp613
sI613
(lp614
sI614
(lp615
sI615
(lp616
sI616
(lp617
sI617
(lp618
sI618
(lp619
sI619
(lp620
sI620
(lp621
sI621
(lp622
I622
aI623
aI624
aI625
aI626
aI627
aI628
aI629
aI630
aI631
aI632
aI633
aI634
aI635
aI636
aI637
asI622
(lp623
sI623
(lp624
sI624
(lp625
sI625
(lp626
sI626
(lp627
sI627
(lp628
sI628
(lp629
sI629
(lp630
sI630
(lp631
sI631
(lp632
sI632
(lp633
sI633
(lp634
sI634
(lp635
sI635
(lp636
sI636
(lp637
sI637
(lp638
sI638
(lp639
sI639
(lp640
I640
aI641
aI642
aI643
aI644
aI645
aI646
aI647
aI648
aI649
aI650
aI651
aI652
aI653
aI654
aI655
asI640
(lp641
sI641
(lp642
sI642
(lp643
sI643
(lp644
sI644
(lp645
sI645
(lp646
sI646
(lp647
sI647
(lp648
sI648
(lp649
sI649
(lp650
sI650
(lp651
sI651
(lp652
sI652
(lp653
sI653
(lp654
sI654
(lp655
sI655
(lp656
sI656
(lp657
I657
aI658
aI675
aI676
aI677
aI678
aI711
aI712
aI713
aI730
aI731
aI732
aI733
aI750
aI751
aI752
asI657
(lp658
sI658
(lp659
I659
aI660
aI661
aI662
aI663
aI664
aI665
aI666
aI667
aI668
aI669
aI670
aI671
aI672
aI673
aI674
asI659
(lp660
sI660
(lp661
sI661
(lp662
sI662
(lp663
sI663
(lp664
sI664
(lp665
sI665
(lp666
sI666
(lp667
sI667
(lp668
sI668
(lp669
sI669
(lp670
sI670
(lp671
sI671
(lp672
sI672
(lp673
sI673
(lp674
sI674
(lp675
sI675
(lp676
sI676
(lp677
sI677
(lp678
sI678
(lp679
I679
aI680
aI681
aI682
aI683
aI684
aI685
aI686
aI687
aI688
aI689
aI690
aI691
aI708
aI709
aI710
asI679
(lp680
sI680
(lp681
sI681
(lp682
sI682
(lp683
sI683
(lp684
sI684
(lp685
sI685
(lp686
sI686
(lp687
sI687
(lp688
sI688
(lp689
sI689
(lp690
sI690
(lp691
sI691
(lp692
I692
aI693
aI694
aI695
aI696
aI697
aI698
aI699
aI700
aI701
aI702
aI703
aI704
aI705
aI706
aI707
asI692
(lp693
sI693
(lp694
sI694
(lp695
sI695
(lp696
sI696
(lp697
sI697
(lp698
sI698
(lp699
sI699
(lp700
sI700
(lp701
sI701
(lp702
sI702
(lp703
sI703
(lp704
sI704
(lp705
sI705
(lp706
sI706
(lp707
sI707
(lp708
sI708
(lp709
sI709
(lp710
sI710
(lp711
sI711
(lp712
sI712
(lp713
sI713
(lp714
I714
aI715
aI716
aI717
aI718
aI719
aI720
aI721
aI722
aI723
aI724
aI725
aI726
aI727
aI728
aI729
asI714
(lp715
sI715
(lp716
sI716
(lp717
sI717
(lp718
sI718
(lp719
sI719
(lp720
sI720
(lp721
sI721
(lp722
sI722
(lp723
sI723
(lp724
sI724
(lp725
sI725
(lp726
sI726
(lp727
sI727
(lp728
sI728
(lp729
sI729
(lp730
sI730
(lp731
sI731
(lp732
sI732
(lp733
sI733
(lp734
I734
aI735
aI736
aI737
aI738
aI739
aI740
aI741
aI742
aI743
aI744
aI745
aI746
aI747
aI748
aI749
asI734
(lp735
sI735
(lp736
sI736
(lp737
sI737
(lp738
sI738
(lp739
sI739
(lp740
sI740
(lp741
sI741
(lp742
sI742
(lp743
sI743
(lp744
sI744
(lp745
sI745
(lp746
sI746
(lp747
sI747
(lp748
sI748
(lp749
sI749
(lp750
sI750
(lp751
sI751
(lp752
sI752
(lp753
I753
aI754
aI755
aI756
aI757
aI758
aI759
aI760
aI761
aI762
aI763
aI764
aI765
aI766
aI767
aI768
asI753
(lp754
sI754
(lp755
sI755
(lp756
sI756
(lp757
sI757
(lp758
sI758
(lp759
sI759
(lp760
sI760
(lp761
sI761
(lp762
sI762
(lp763
sI763
(lp764
sI764
(lp765
sI765
(lp766
sI766
(lp767
sI767
(lp768
sI768
(lp769
s.