(dp0
I0
(lp1
I1
aI42
aI83
aI100
aI157
aI190
aI247
aI280
asI1
(lp2
I2
aI11
aI20
aI21
aI30
aI31
aI32
aI33
asI2
(lp3
I3
aI4
aI5
aI6
aI7
aI8
aI9
aI10
asI3
(lp4
sI4
(lp5
sI5
(lp6
sI6
(lp7
sI7
(lp8
sI8
(lp9
sI9
(lp10
sI10
(lp11
sI11
(lp12
I12
aI13
aI14
aI15
aI16
aI17
aI18
aI19
asI12
(lp13
sI13
(lp14
sI14
(lp15
sI15
(lp16
sI16
(lp17
sI17
(lp18
sI18
(lp19
sI19
(lp20
sI20
(lp21
sI21
(lp22
I22
aI23
aI24
aI25
aI26
aI27
aI28
aI29
asI22
(lp23
sI23
(lp24
sI24
(lp25
sI25
(lp26
sI26
(lp27
sI27
(lp28
sI28
(lp29
sI29
(lp30
sI30
(lp31
sI31
(lp32
sI32
(lp33
sI33
(lp34
I34
aI35
aI36
aI37
aI38
aI39
aI40
aI41
asI34
(lp35
sI35
(lp36
sI36
(lp37
sI37
(lp38
sI38
(lp39
sI39
(lp40
sI40
(lp41
sI41
(lp42
sI42
(lp43
I43
aI44
aI45
aI54
aI55
aI64
aI73
aI82
asI43
(lp44
sI44
(lp45
sI45
(lp46
I46
aI47
aI48
aI49
aI50
aI51
aI52
aI53
asI46
(lp47
sI47
(lp48
sI48
(lp49
sI49
(lp50
sI50
(lp51
sI51
(lp52
sI52
(lp53
sI53
(lp54
sI54
(lp55
sI55
(lp56
I56
aI57
aI58
aI59
aI60
aI61
aI62
aI63
asI56
(lp57
sI57
(lp58
sI58
(lp59
sI59
(lp60
sI60
(lp61
sI61
(lp62
sI62
(lp63
sI63
(lp64
sI64
(lp65
I65
aI66
aI67
aI68
aI69
aI70
aI71
aI72
asI65
(lp66
sI66
(lp67
sI67
(lp68
sI68
(lp69
sI69
(lp70
sI70
(lp71
sI71
(lp72
sI72
(lp73
sI73
(lp74
I74
aI75
aI76
aI77
aI78
aI79
aI80
aI81
asI74
(lp75
sI75
(lp76
sI76
(lp77
sI77
(lp78
sI78
(lp79
sI79
(lp80
sI80
(lp81
sI81
(lp82
sI82
(lp83
sI83
(lp84
I84
aI85
aI86
aI87
aI88
aI97
aI98
aI99
asI84
(lp85
sI85
(lp86
sI86
(lp87
sI87
(lp88
sI88
(lp89
I89
aI90
aI91
aI92
aI93
aI94
aI95
aI96
asI89
(lp90
sI90
(lp91
sI91
(lp92
sI92
(lp93
sI93
(lp94
sI94
(lp95
sI95
(lp96
sI96
(lp97
sI97
(lp98
sI98
(lp99
sI99
(lp100
sI100
(lp101
I101
aI102
aI111
aI112
aI129
aI138
aI139
aI148
asI101
(lp102
sI102
(lp103
I103
aI104
aI105
aI106
aI107
aI108
aI109
aI110
asI103
(lp104
sI104
(lp105
sI105
(lp106
sI106
(lp107
sI107
(lp108
sI108
(lp109
sI109
(lp110
sI110
(lp111
sI111
(lp112
sI112
(lp113
I113
aI114
aI115
aI116
aI117
aI126
aI127
aI128
asI113
(lp114
sI114
(lp115
sI115
(lp116
sI116
(lp117
sI117
(lp118
I118
aI119
aI120
aI121
aI122
aI123
aI124
aI125
asI118
(lp119
sI119
(lp120
sI120
(lp121
sI121
(lp122
sI122
(lp123
sI123
(lp124
sI124
(lp125
sI125
(lp126
sI126
(lp127
sI127
(lp128
sI128
(lp129
sI129
(lp130
I130
aI131
aI132
aI133
aI134
aI135
aI136
aI137
asI130
(lp131
sI131
(lp132
sI132
(lp133
sI133
(lp134
sI134
(lp135
sI135
(lp136
sI136
(lp137
sI137
(lp138
sI138
(lp139
sI139
(lp140
I140
aI141
aI142
aI143
aI144
aI145
aI146
aI147
asI140
(lp141
sI141
(lp142
sI142
(lp143
sI143
(lp144
sI144
(lp145
sI145
(lp146
sI146
(lp147
sI147
(lp148
sI148
(lp149
I149
aI150
aI151
aI152
aI153
aI154
aI155
aI156
asI149
(lp150
sI150
(lp151
sI151
(lp152
sI152
(lp153
sI153
(lp154
sI154
(lp155
sI155
(lp156
sI156
(lp157
sI157
(lp158
I158
aI159
aI160
aI161
aI170
aI171
aI172
aI181
asI158
(lp159
sI159
(lp160
sI160
(lp161
sI161
(lp162
I162
aI163
aI164
aI165
aI166
aI167
aI168
aI169
asI162
(lp163
sI163
(lp164
sI164
(lp165
sI165
(lp166
sI166
(lp167
sI167
(lp168
sI168
(lp169
sI169
(lp170
sI170
(lp171
sI171
(lp172
sI172
(lp173
I173
aI174
aI175
aI176
aI177
aI178
aI179
aI180
asI173
(lp174
sI174
(lp175
sI175
(lp176
sI176
(lp177
sI177
(lp178
sI178
(lp179
sI179
(lp180
sI180
(lp181
sI181
(lp182
I182
aI183
aI184
aI185
aI186
aI187
aI188
aI189
asI182
(lp183
sI183
(lp184
sI184
(lp185
sI185
(lp186
sI186
(lp187
sI187
(lp188
sI188
(lp189
sI189
(lp190
sI190
(lp191
I191
aI200
aI209
aI210
aI219
aI228
aI237
aI246
asI191
(lp192
I192
aI193
aI194
aI195
aI196
aI197
aI198
aI199
asI192
(lp193
sI193
(lp194
sI194
(lp195
sI195
(lp196
sI196
(lp197
sI197
(lp198
sI198
(lp199
sI199
(lp200
sI200
(lp201
I201
aI202
aI203
aI204
aI205
aI206
aI207
aI208
asI201
(lp202
sI202
(lp203
sI203
(lp204
sI204
(lp205
sI205
(lp206
sI206
(lp207
sI207
(lp208
sI208
(lp209
sI209
(lp210
sI210
(lp211
I211
aI212
aI213
aI214
aI215
aI216
aI217
aI218
asI211
(lp212
sI212
(lp213
sI213
(lp214
sI214
(lp215
sI215
(lp216
sI216
(lp217
sI217
(lp218
sI218
(lp219
sI219
(lp220
I220
aI221
aI222
aI223
aI224
aI225
aI226
aI227
asI220
(lp221
sI221
(lp222
sI222
(lp223
sI223
(lp224
sI224
(lp225
sI225
(lp226
sI226
(lp227
sI227
(lp228
sI228
(lp229
I229
aI230
aI231
aI232
aI233
aI234
aI235
aI236
asI229
(lp230
sI230
(lp231
sI231
(lp232
sI232
(lp233
sI233
(lp234
sI234
(lp235
sI235
(lp236
sI236
(lp237
sI237
(lp238
I238
aI239
aI240
aI241
aI242
aI243
aI244
aI245
asI238
(lp239
sI239
(lp240
sI240
(lp241
sI241
(lp242
sI242
(lp243
sI243
(lp244
sI244
(lp245
sI245
(lp246
sI246
(lp247
sI247
(lp248
I248
aI257
aI258
aI267
aI268
aI277
aI278
aI279
asI248
(lp249
I249
aI250
aI251
aI252
aI253
aI254
aI255
aI256
asI249
(lp250
sI250
(lp251
sI251
(lp252
sI252
(lp253
sI253
(lp254
sI254
(lp255
sI255
(lp256
sI256
(lp257
sI257
(lp258
sI258
(lp259
I259
aI260
aI261
aI262
aI263
aI264
aI265
aI266
asI259
(lp260
sI260
(lp261
sI261
(lp262
sI262
(lp263
sI263
(lp264
sI264
(lp265
sI265
(lp266
sI266
(lp267
sI267
(lp268
sI268
(lp269
I269
aI270
aI271
aI272
aI273
aI274
aI275
aI276
asI269
(lp270
sI270
(lp271
sI271
(lp272
sI272
(lp273
sI273
(lp274
sI274
(lp275
sI275
(lp276
sI276
(lp277
sI277
(lp278
sI278
(lp279
sI279
(lp280
sI280
(lp281
I281
aI290
aI299
aI308
aI317
aI326
aI335
aI344
asI281
(lp282
I282
aI283
aI284
aI285
aI286
aI287
aI288
aI289
asI282
(lp283
sI283
(lp284
sI284
(lp285
sI285
(lp286
sI286
(lp287
sI287
(lp288
sI288
(lp289
sI289
(lp290
sI290
(lp291
I291
aI292
aI293
aI294
aI295
aI296
aI297
aI298
asI291
(lp292
sI292
(lp293
sI293
(lp294
sI294
(lp295
sI295
(lp296
sI296
(lp297
sI297
(lp298
sI298
(lp299
sI299
(lp300
I300
aI301
aI302
aI303
aI304
aI305
aI306
aI307
asI300
(lp301
sI301
(lp302
sI302
(lp303
sI303
(lp304
sI304
(lp305
sI305
(lp306
sI306
(lp307
sI307
(lp308
sI308
(lp309
I309
aI310
aI311
aI312
aI313
aI314
aI315
aI316
asI309
(lp310
sI310
(lp311
sI311
(lp312
sI312
(lp313
sI313
(lp314
sI314
(lp315
sI315
(lp316
sI316
(lp317
sI317
(lp318
I318
aI319
aI320
aI321
aI322
aI323
aI324
aI325
asI318
(lp319
sI319
(lp320
sI320
(lp321
sI321
(lp322
sI322
(lp323
sI323
(lp324
sI324
(lp325
sI325
(lp326
sI326
(lp327
I327
aI328
aI329
aI330
aI331
aI332
aI333
aI334
asI327
(lp328
sI328
(lp329
sI329
(lp330
sI330
(lp331
sI331
(lp332
sI332
(lp333
sI333
(lp334
sI334
(lp335
sI335
(lp336
I336
aI337
aI338
aI339
aI340
aI341
aI342
aI343
asI336
(lp337
sI337
(lp338
sI338
(lp339
sI339
(lp340
sI340
(lp341
sI341
(lp342
sI342
(lp343
sI343
(lp344
sI344
(lp345
I345
aI346
aI347
aI348
aI349
aI350
aI351
aI352
asI345
(lp346
sI346
(lp347
sI347
(lp348
sI348
(lp349
sI349
(lp350
sI350
(lp351
sI351
(lp352
sI352
(lp353
s.