(dp0
I0
(lp1
I1
aI66
aI83
aI100
aI117
aI134
aI151
aI168
aI217
aI234
aI251
aI284
aI301
aI366
aI399
aI480
asI1
(lp2
I2
aI3
aI4
aI5
aI22
aI39
aI40
aI41
aI42
aI43
aI60
aI61
aI62
aI63
aI64
aI65
asI2
(lp3
sI3
(lp4
sI4
(lp5
sI5
(lp6
I6
aI7
aI8
aI9
aI10
aI11
aI12
aI13
aI14
aI15
aI16
aI17
aI18
aI19
aI20
aI21
asI6
(lp7
sI7
(lp8
sI8
(lp9
sI9
(lp10
sI10
(lp11
sI11
(lp12
sI12
(lp13
sI13
(lp14
sI14
(lp15
sI15
(lp16
sI16
(lp17
sI17
(lp18
sI18
(lp19
sI19
(lp20
sI20
(lp21
sI21
(lp22
sI22
(lp23
I23
aI24
aI25
aI26
aI27
aI28
aI29
aI30
aI31
aI32
aI33
aI34
aI35
aI36
aI37
aI38
asI23
(lp24
sI24
(lp25
sI25
(lp26
sI26
(lp27
sI27
(lp28
sI28
(lp29
sI29
(lp30
sI30
(lp31
sI31
(lp32
sI32
(lp33
sI33
(lp34
sI34
(lp35
sI35
(lp36
sI36
(lp37
sI37
(lp38
sI38
(lp39
sI39
(lp40
sI40
(lp41
sI41
(lp42
sI42
(lp43
sI43
(lp44
I44
aI45
aI46
aI47
aI48
aI49
aI50
aI51
aI52
aI53
aI54
aI55
aI56
aI57
aI58
aI59
asI44
(lp45
sI45
(lp46
sI46
(lp47
sI47
(lp48
sI48
(lp49
sI49
(lp50
sI50
(lp51
sI51
(lp52
sI52
(lp53
sI53
(lp54
sI54
(lp55
sI55
(lp56
sI56
(lp57
sI57
(lp58
sI58
(lp59
sI59
(lp60
sI60
(lp61
sI61
(lp62
sI62
(lp63
sI63
(lp64
sI64
(lp65
sI65
(lp66
sI66
(lp67
I67
aI68
aI69
aI70
aI71
aI72
aI73
aI74
aI75
aI76
aI77
aI78
aI79
aI80
aI81
aI82
asI67
(lp68
sI68
(lp69
sI69
(lp70
sI70
(lp71
sI71
(lp72
sI72
(lp73
sI73
(lp74
sI74
(lp75
sI75
(lp76
sI76
(lp77
sI77
(lp78
sI78
(lp79
sI79
(lp80
sI80
(lp81
sI81
(lp82
sI82
(lp83
sI83
(lp84
I84
aI85
aI86
aI87
aI88
aI89
aI90
aI91
aI92
aI93
aI94
aI95
aI96
aI97
aI98
aI99
asI84
(lp85
sI85
(lp86
sI86
(lp87
sI87
(lp88
sI88
(lp89
sI89
(lp90
sI90
(lp91
sI91
(lp92
sI92
(lp93
sI93
(lp94
sI94
(lp95
sI95
(lp96
sI96
(lp97
sI97
(lp98
sI98
(lp99
sI99
(lp100
sI100
(lp101
I101
aI102
aI103
aI104
aI105
aI106
aI107
aI108
aI109
aI110
aI111
aI112
aI113
aI114
aI115
aI116
asI101
(lp102
sI102
(lp103
sI103
(lp104
sI104
(lp105
sI105
(lp106
sI106
(lp107
sI107
(lp108
sI108
(lp109
sI109
(lp110
sI110
(lp111
sI111
(lp112
sI112
(lp113
sI113
(lp114
sI114
(lp115
sI115
(lp116
sI116
(lp117
sI117
(lp118
I118
aI119
aI120
aI121
aI122
aI123
aI124
aI125
aI126
aI127
aI128
aI129
aI130
aI131
aI132
aI133
asI118
(lp119
sI119
(lp120
sI120
(lp121
sI121
(lp122
sI122
(lp123
sI123
(lp124
sI124
(lp125
sI125
(lp126
sI126
(lp127
sI127
(lp128
sI128
(lp129
sI129
(lp130
sI130
(lp131
sI131
(lp132
sI132
(lp133
sI133
(lp134
sI134
(lp135
I135
aI136
aI137
aI138
aI139
aI140
aI141
aI142
aI143
aI144
aI145
aI146
aI147
aI148
aI149
aI150
asI135
(lp136
sI136
(lp137
sI137
(lp138
sI138
(lp139
sI139
(lp140
sI140
(lp141
sI141
(lp142
sI142
(lp143
sI143
(lp144
sI144
(lp145
sI145
(lp146
sI146
(lp147
sI147
(lp148
sI148
(lp149
sI149
(lp150
sI150
(lp151
sI151
(lp152
I152
aI153
aI154
aI155
aI156
aI157
aI158
aI159
aI160
aI161
aI162
aI163
aI164
aI165
aI166
aI167
asI152
(lp153
sI153
(lp154
sI154
(lp155
sI155
(lp156
sI156
(lp157
sI157
(lp158
sI158
(lp159
sI159
(lp160
sI160
(lp161
sI161
(lp162
sI162
(lp163
sI163
(lp164
sI164
(lp165
sI165
(lp166
sI166
(lp167
sI167
(lp168
sI168
(lp169
I169
aI170
aI171
aI172
aI173
aI174
aI175
aI176
aI177
aI178
aI179
aI180
aI181
aI198
aI215
aI216
asI169
(lp170
sI170
(lp171
sI171
(lp172
sI172
(lp173
sI173
(lp174
sI174
(lp175
sI175
(lp176
sI176
(lp177
sI177
(lp178
sI178
(lp179
sI179
(lp180
sI180
(lp181
sI181
(lp182
I182
aI183
aI184
aI185
aI186
aI187
aI188
aI189
aI190
aI191
aI192
aI193
aI194
aI195
aI196
aI197
asI182
(lp183
sI183
(lp184
sI184
(lp185
sI185
(lp186
sI186
(lp187
sI187
(lp188
sI188
(lp189
sI189
(lp190
sI190
(lp191
sI191
(lp192
sI192
(lp193
sI193
(lp194
sI194
(lp195
sI195
(lp196
sI196
(lp197
sI197
(lp198
sI198
(lp199
I199
aI200
aI201
aI202
aI203
aI204
aI205
aI206
aI207
aI208
aI209
aI210
aI211
aI212
aI213
aI214
asI199
(lp200
sI200
(lp201
sI201
(lp202
sI202
(lp203
sI203
(lp204
sI204
(lp205
sI205
(lp206
sI206
(lp207
sI207
(lp208
sI208
(lp209
sI209
(lp210
sI210
(lp211
sI211
(lp212
sI212
(lp213
sI213
(lp214
sI214
(lp215
sI215
(lp216
sI216
(lp217
sI217
(lp218
I218
aI219
aI220
aI221
aI222
aI223
aI224
aI225
aI226
aI227
aI228
aI229
aI230
aI231
aI232
aI233
asI218
(lp219
sI219
(lp220
sI220
(lp221
sI221
(lp222
sI222
(lp223
sI223
(lp224
sI224
(lp225
sI225
(lp226
sI226
(lp227
sI227
(lp228
sI228
(lp229
sI229
(lp230
sI230
(lp231
sI231
(lp232
sI232
(lp233
sI233
(lp234
sI234
(lp235
I235
aI236
aI237
aI238
aI239
aI240
aI241
aI242
aI243
aI244
aI245
aI246
aI247
aI248
aI249
aI250
asI235
(lp236
sI236
(lp237
sI237
(lp238
sI238
(lp239
sI239
(lp240
sI240
(lp241
sI241
(lp242
sI242
(lp243
sI243
(lp244
sI244
(lp245
sI245
(lp246
sI246
(lp247
sI247
(lp248
sI248
(lp249
sI249
(lp250
sI250
(lp251
sI251
(lp252
I252
aI253
aI254
aI255
aI256
aI257
aI258
aI259
aI260
aI261
aI262
aI263
aI280
aI281
aI282
aI283
asI252
(lp253
sI253
(lp254
sI254
(lp255
sI255
(lp256
sI256
(lp257
sI257
(lp258
sI258
(lp259
sI259
(lp260
sI260
(lp261
sI261
(lp262
sI262
(lp263
sI263
(lp264
I264
aI265
aI266
aI267
aI268
aI269
aI270
aI271
aI272
aI273
aI274
aI275
aI276
aI277
aI278
aI279
asI264
(lp265
sI265
(lp266
sI266
(lp267
sI267
(lp268
sI268
(lp269
sI269
(lp270
sI270
(lp271
sI271
(lp272
sI272
(lp273
sI273
(lp274
sI274
(lp275
sI275
(lp276
sI276
(lp277
sI277
(lp278
sI278
(lp279
sI279
(lp280
sI280
(lp281
sI281
(lp282
sI282
(lp283
sI283
(lp284
sI284
(lp285
I285
aI286
aI287
aI288
aI289
aI290
aI291
aI292
aI293
aI294
aI295
aI296
aI297
aI298
aI299
aI300
asI285
(lp286
sI286
(lp287
sI287
(lp288
sI288
(lp289
sI289
(lp290
sI290
(lp291
sI291
(lp292
sI292
(lp293
sI293
(lp294
sI294
(lp295
sI295
(lp296
sI296
(lp297
sI297
(lp298
sI298
(lp299
sI299
(lp300
sI300
(lp301
sI301
(lp302
I302
aI303
aI304
aI305
aI322
aI323
aI324
aI325
aI342
aI343
aI344
aI361
aI362
aI363
aI364
aI365
asI302
(lp303
sI303
(lp304
sI304
(lp305
sI305
(lp306
I306
aI307
aI308
aI309
aI310
aI311
aI312
aI313
aI314
aI315
aI316
aI317
aI318
aI319
aI320
aI321
asI306
(lp307
sI307
(lp308
sI308
(lp309
sI309
(lp310
sI310
(lp311
sI311
(lp312
sI312
(lp313
sI313
(lp314
sI314
(lp315
sI315
(lp316
sI316
(lp317
sI317
(lp318
sI318
(lp319
sI319
(lp320
sI320
(lp321
sI321
(lp322
sI322
(lp323
sI323
(lp324
sI324
(lp325
sI325
(lp326
I326
aI327
aI328
aI329
aI330
aI331
aI332
aI333
aI334
aI335
aI336
aI337
aI338
aI339
aI340
aI341
asI326
(lp327
sI327
(lp328
sI328
(lp329
sI329
(lp330
sI330
(lp331
sI331
(lp332
sI332
(lp333
sI333
(lp334
sI334
(lp335
sI335
(lp336
sI336
(lp337
sI337
(lp338
sI338
(lp339
sI339
(lp340
sI340
(lp341
sI341
(lp342
sI342
(lp343
sI343
(lp344
sI344
(lp345
I345
aI346
aI347
aI348
aI349
aI350
aI351
aI352
aI353
aI354
aI355
aI356
aI357
aI358
aI359
aI360
asI345
(lp346
sI346
(lp347
sI347
(lp348
sI348
(lp349
sI349
(lp350
sI350
(lp351
sI351
(lp352
sI352
(lp353
sI353
(lp354
sI354
(lp355
sI355
(lp356
sI356
(lp357
sI357
(lp358
sI358
(lp359
sI359
(lp360
sI360
(lp361
sI361
(lp362
sI362
(lp363
sI363
(lp364
sI364
(lp365
sI365
(lp366
sI366
(lp367
I367
aI368
aI369
aI370
aI371
aI372
aI373
aI374
aI375
aI376
aI377
aI378
aI379
aI380
aI381
aI382
asI367
(lp368
sI368
(lp369
sI369
(lp370
sI370
(lp371
sI371
(lp372
sI372
(lp373
sI373
(lp374
sI374
(lp375
sI375
(lp376
sI376
(lp377
sI377
(lp378
sI378
(lp379
sI379
(lp380
sI380
(lp381
sI381
(lp382
sI382
(lp383
I383
aI384
aI385
aI386
aI387
aI388
aI389
aI390
aI391
aI392
aI393
aI394
aI395
aI396
aI397
aI398
asI383
(lp384
sI384
(lp385
sI385
(lp386
sI386
(lp387
sI387
(lp388
sI388
(lp389
sI389
(lp390
sI390
(lp391
sI391
(lp392
sI392
(lp393
sI393
(lp394
sI394
(lp395
sI395
(lp396
sI396
(lp397
sI397
(lp398
sI398
(lp399
sI399
(lp400
I400
aI401
aI418
aI419
aI420
aI437
aI438
aI455
aI456
aI457
aI458
aI459
aI476
aI477
aI478
aI479
asI400
(lp401
sI401
(lp402
I402
aI403
aI404
aI405
aI406
aI407
aI408
aI409
aI410
aI411
aI412
aI413
aI414
aI415
aI416
aI417
asI402
(lp403
sI403
(lp404
sI404
(lp405
sI405
(lp406
sI406
(lp407
sI407
(lp408
sI408
(lp409
sI409
(lp410
sI410
(lp411
sI411
(lp412
sI412
(lp413
sI413
(lp414
sI414
(lp415
sI415
(lp416
sI416
(lp417
sI417
(lp418
sI418
(lp419
sI419
(lp420
sI420
(lp421
I421
aI422
aI423
aI424
aI425
aI426
aI427
aI428
aI429
aI430
aI431
aI432
aI433
aI434
aI435
aI436
asI421
(lp422
sI422
(lp423
sI423
(lp424
sI424
(lp425
sI425
(lp426
sI426
(lp427
sI427
(lp428
sI428
(lp429
sI429
(lp430
sI430
(lp431
sI431
(lp432
sI432
(lp433
sI433
(lp434
sI434
(lp435
sI435
(lp436
sI436
(lp437
sI437
(lp438
sI438
(lp439
I439
aI440
aI441
aI442
aI443
aI444
aI445
aI446
aI447
aI448
aI449
aI450
aI451
aI452
aI453
aI454
asI439
(lp440
sI440
(lp441
sI441
(lp442
sI442
(lp443
sI443
(lp444
sI444
(lp445
sI445
(lp446
sI446
(lp447
sI447
(lp448
sI448
(lp449
sI449
(lp450
sI450
(lp451
sI451
(lp452
sI452
(lp453
sI453
(lp454
sI454
(lp455
sI455
(lp456
sI456
(lp457
sI457
(lp458
sI458
(lp459
sI459
(lp460
I460
aI461
aI462
aI463
aI464
aI465
aI466
aI467
aI468
aI469
aI470
aI471
aI472
aI473
aI474
aI475
asI460
(lp461
sI461
(lp462
sI462
(lp463
sI463
(lp464
sI464
(lp465
sI465
(lp466
sI466
(lp467
sI467
(lp468
sI468
(lp469
sI469
(lp470
sI470
(lp471
sI471
(lp472
sI472
(lp473
sI473
(lp474
sI474
(lp475
sI475
(lp476
sI476
(lp477
sI477
(lp478
sI478
(lp479
sI479
(lp480
sI480
(lp481
I481
aI482
aI483
aI500
aI501
aI502
aI503
aI504
aI505
aI506
aI507
aI508
aI509
aI510
aI511
aI512
asI481
(lp482
sI482
(lp483
sI483
(lp484
I484
aI485
aI486
aI487
aI488
aI489
aI490
aI491
aI492
aI493
aI494
aI495
aI496
aI497
aI498
aI499
asI484
(lp485
sI485
(lp486
sI486
(lp487
sI487
(lp488
sI488
(lp489
sI489
(lp490
sI490
(lp491
sI491
(lp492
sI492
(lp493
sI493
(lp494
sI494
(lp495
sI495
(lp496
sI496
(lp497
sI497
(lp498
sI498
(lp499
sI499
(lp500
sI500
(lp501
sI501
(lp502
sI502
(lp503
sI503
(lp504
sI504
(lp505
sI505
(lp506
sI506
(lp507
sI507
(lp508
sI508
(lp509
sI509
(lp510
sI510
(lp511
sI511
(lp512
sI512
(lp513
s.